; ModuleID = '33/432.c'
source_filename = "33/432.c"
target datalayout = "e-m:e-p270:32:32-p271:32:32-p272:64:64-i64:64-f80:128-n8:16:32:64-S128"
target triple = "x86_64-pc-linux-gnu"

@.str = private unnamed_addr constant [3 x i8] c"%d\00", align 1
@.str.1 = private unnamed_addr constant [4 x i8] c"%s\0A\00", align 1

; Function Attrs: noinline nounwind uwtable
define dso_local i32 @main() #0 {
  %1 = alloca i32, align 4
  %2 = alloca i32, align 4
  %3 = alloca [1000 x [260 x i8]], align 16
  %4 = alloca [1000 x [260 x i8]], align 16
  %5 = alloca [1000 x i8], align 16
  %6 = alloca [1000 x i32], align 16
  %7 = alloca i32, align 4
  %8 = alloca i32, align 4
  %9 = alloca i32, align 4
  store i32 0, i32* %1, align 4
  %10 = call i32 (i8*, ...) @__isoc99_scanf(i8* getelementptr inbounds ([3 x i8], [3 x i8]* @.str, i64 0, i64 0), i32* %2)
  %11 = getelementptr inbounds [1000 x i8], [1000 x i8]* %5, i64 0, i64 0
  %12 = call i32 (i8*, ...) bitcast (i32 (...)* @gets to i32 (i8*, ...)*)(i8* %11)
  store i32 0, i32* %7, align 4
  br label %13

13:                                               ; preds = %33, %0
  %14 = load i32, i32* %7, align 4
  %15 = load i32, i32* %2, align 4
  %16 = sub nsw i32 %15, 1
  %17 = icmp sle i32 %14, %16
  br i1 %17, label %18, label %36

18:                                               ; preds = %13
  %19 = load i32, i32* %7, align 4
  %20 = sext i32 %19 to i64
  %21 = getelementptr inbounds [1000 x [260 x i8]], [1000 x [260 x i8]]* %3, i64 0, i64 %20
  %22 = getelementptr inbounds [260 x i8], [260 x i8]* %21, i64 0, i64 0
  %23 = call i32 (i8*, ...) bitcast (i32 (...)* @gets to i32 (i8*, ...)*)(i8* %22)
  %24 = load i32, i32* %7, align 4
  %25 = sext i32 %24 to i64
  %26 = getelementptr inbounds [1000 x [260 x i8]], [1000 x [260 x i8]]* %3, i64 0, i64 %25
  %27 = getelementptr inbounds [260 x i8], [260 x i8]* %26, i64 0, i64 0
  %28 = call i64 @strlen(i8* %27) #3
  %29 = trunc i64 %28 to i32
  %30 = load i32, i32* %7, align 4
  %31 = sext i32 %30 to i64
  %32 = getelementptr inbounds [1000 x i32], [1000 x i32]* %6, i64 0, i64 %31
  store i32 %29, i32* %32, align 4
  br label %33

33:                                               ; preds = %18
  %34 = load i32, i32* %7, align 4
  %35 = add nsw i32 %34, 1
  store i32 %35, i32* %7, align 4
  br label %13

36:                                               ; preds = %13
  store i32 0, i32* %8, align 4
  br label %37

37:                                               ; preds = %129, %36
  %38 = load i32, i32* %8, align 4
  %39 = load i32, i32* %2, align 4
  %40 = sub nsw i32 %39, 1
  %41 = icmp sle i32 %38, %40
  br i1 %41, label %42, label %132

42:                                               ; preds = %37
  store i32 0, i32* %9, align 4
  br label %43

43:                                               ; preds = %120, %42
  %44 = load i32, i32* %9, align 4
  %45 = load i32, i32* %8, align 4
  %46 = sext i32 %45 to i64
  %47 = getelementptr inbounds [1000 x i32], [1000 x i32]* %6, i64 0, i64 %46
  %48 = load i32, i32* %47, align 4
  %49 = sub nsw i32 %48, 1
  %50 = icmp sle i32 %44, %49
  br i1 %50, label %51, label %123

51:                                               ; preds = %43
  %52 = load i32, i32* %8, align 4
  %53 = sext i32 %52 to i64
  %54 = getelementptr inbounds [1000 x [260 x i8]], [1000 x [260 x i8]]* %3, i64 0, i64 %53
  %55 = load i32, i32* %9, align 4
  %56 = sext i32 %55 to i64
  %57 = getelementptr inbounds [260 x i8], [260 x i8]* %54, i64 0, i64 %56
  %58 = load i8, i8* %57, align 1
  %59 = sext i8 %58 to i32
  %60 = icmp eq i32 %59, 65
  br i1 %60, label %61, label %68

61:                                               ; preds = %51
  %62 = load i32, i32* %8, align 4
  %63 = sext i32 %62 to i64
  %64 = getelementptr inbounds [1000 x [260 x i8]], [1000 x [260 x i8]]* %4, i64 0, i64 %63
  %65 = load i32, i32* %9, align 4
  %66 = sext i32 %65 to i64
  %67 = getelementptr inbounds [260 x i8], [260 x i8]* %64, i64 0, i64 %66
  store i8 84, i8* %67, align 1
  br label %68

68:                                               ; preds = %61, %51
  %69 = load i32, i32* %8, align 4
  %70 = sext i32 %69 to i64
  %71 = getelementptr inbounds [1000 x [260 x i8]], [1000 x [260 x i8]]* %3, i64 0, i64 %70
  %72 = load i32, i32* %9, align 4
  %73 = sext i32 %72 to i64
  %74 = getelementptr inbounds [260 x i8], [260 x i8]* %71, i64 0, i64 %73
  %75 = load i8, i8* %74, align 1
  %76 = sext i8 %75 to i32
  %77 = icmp eq i32 %76, 84
  br i1 %77, label %78, label %85

78:                                               ; preds = %68
  %79 = load i32, i32* %8, align 4
  %80 = sext i32 %79 to i64
  %81 = getelementptr inbounds [1000 x [260 x i8]], [1000 x [260 x i8]]* %4, i64 0, i64 %80
  %82 = load i32, i32* %9, align 4
  %83 = sext i32 %82 to i64
  %84 = getelementptr inbounds [260 x i8], [260 x i8]* %81, i64 0, i64 %83
  store i8 65, i8* %84, align 1
  br label %85

85:                                               ; preds = %78, %68
  %86 = load i32, i32* %8, align 4
  %87 = sext i32 %86 to i64
  %88 = getelementptr inbounds [1000 x [260 x i8]], [1000 x [260 x i8]]* %3, i64 0, i64 %87
  %89 = load i32, i32* %9, align 4
  %90 = sext i32 %89 to i64
  %91 = getelementptr inbounds [260 x i8], [260 x i8]* %88, i64 0, i64 %90
  %92 = load i8, i8* %91, align 1
  %93 = sext i8 %92 to i32
  %94 = icmp eq i32 %93, 67
  br i1 %94, label %95, label %102

95:                                               ; preds = %85
  %96 = load i32, i32* %8, align 4
  %97 = sext i32 %96 to i64
  %98 = getelementptr inbounds [1000 x [260 x i8]], [1000 x [260 x i8]]* %4, i64 0, i64 %97
  %99 = load i32, i32* %9, align 4
  %100 = sext i32 %99 to i64
  %101 = getelementptr inbounds [260 x i8], [260 x i8]* %98, i64 0, i64 %100
  store i8 71, i8* %101, align 1
  br label %102

102:                                              ; preds = %95, %85
  %103 = load i32, i32* %8, align 4
  %104 = sext i32 %103 to i64
  %105 = getelementptr inbounds [1000 x [260 x i8]], [1000 x [260 x i8]]* %3, i64 0, i64 %104
  %106 = load i32, i32* %9, align 4
  %107 = sext i32 %106 to i64
  %108 = getelementptr inbounds [260 x i8], [260 x i8]* %105, i64 0, i64 %107
  %109 = load i8, i8* %108, align 1
  %110 = sext i8 %109 to i32
  %111 = icmp eq i32 %110, 71
  br i1 %111, label %112, label %119

112:                                              ; preds = %102
  %113 = load i32, i32* %8, align 4
  %114 = sext i32 %113 to i64
  %115 = getelementptr inbounds [1000 x [260 x i8]], [1000 x [260 x i8]]* %4, i64 0, i64 %114
  %116 = load i32, i32* %9, align 4
  %117 = sext i32 %116 to i64
  %118 = getelementptr inbounds [260 x i8], [260 x i8]* %115, i64 0, i64 %117
  store i8 67, i8* %118, align 1
  br label %119

119:                                              ; preds = %112, %102
  br label %120

120:                                              ; preds = %119
  %121 = load i32, i32* %9, align 4
  %122 = add nsw i32 %121, 1
  store i32 %122, i32* %9, align 4
  br label %43

123:                                              ; preds = %43
  %124 = load i32, i32* %8, align 4
  %125 = sext i32 %124 to i64
  %126 = getelementptr inbounds [1000 x [260 x i8]], [1000 x [260 x i8]]* %4, i64 0, i64 %125
  %127 = getelementptr inbounds [260 x i8], [260 x i8]* %126, i64 0, i64 0
  %128 = call i32 (i8*, ...) @printf(i8* getelementptr inbounds ([4 x i8], [4 x i8]* @.str.1, i64 0, i64 0), i8* %127)
  br label %129

129:                                              ; preds = %123
  %130 = load i32, i32* %8, align 4
  %131 = add nsw i32 %130, 1
  store i32 %131, i32* %8, align 4
  br label %37

132:                                              ; preds = %37
  %133 = call i32 (i8*, ...) @__isoc99_scanf(i8* getelementptr inbounds ([3 x i8], [3 x i8]* @.str, i64 0, i64 0), i32* %2)
  ret i32 0
}

declare dso_local i32 @__isoc99_scanf(i8*, ...) #1

declare dso_local i32 @gets(...) #1

; Function Attrs: nounwind readonly
declare dso_local i64 @strlen(i8*) #2

declare dso_local i32 @printf(i8*, ...) #1


!llvm.module.flags = !{!0}
!llvm.ident = !{!1}

!0 = !{i32 1, !"wchar_size", i32 4}
!1 = !{!"clang version 10.0.0-4ubuntu1 "}
